#include <math.h>
#include <stdio.h>
#include <stdlib.h>
#include <string.h>

void main()
{
	int su(int m);
	int n,i;

	scanf("%d",&n);
	for(i=3;i<=n/2;i++)
	{
		if(su(i)&&su(n-i))
		{
			printf("%d %d\n",i,n-i);
		}
	}
}

int su(int m)
{
	int j;
	for(j=2;j<=sqrt(m);j++)
		if(m%j==0)break;

	if(j>sqrt(m))
		return 1;
	else
		return 0;
}


              



